target datalayout = "e-m:e-p270:32:32-p271:32:32-p272:64:64-i64:64-i128:128-f80:128-n8:16:32:64-S128"
target triple = "x86_64-pc-linux-gnu"

%struct.FormatEntry = type { i8 }

; Function Attrs: nounwind uwtable
define i32 @sws_isSupportedInput(i32 noundef %0) #0 {
  %2 = alloca i32, align 4
  store i32 %0, ptr %2, align 4, !tbaa !4
  %3 = load i32, ptr %2, align 4, !tbaa !4
  %4 = zext i32 %3 to i64
  %5 = icmp ult i64 %4, 256
  br i1 %5, label %6, label %13

6:                                                ; preds = %1
  %7 = load i32, ptr %2, align 4, !tbaa !4
  %8 = sext i32 %7 to i64
  %9 = getelementptr inbounds [256 x %struct.FormatEntry], ptr @format_entries, i64 0, i64 %8
  %10 = load i8, ptr %9, align 1
  %11 = and i8 %10, 1
  %12 = zext i8 %11 to i32
  br label %14

13:                                               ; preds = %1
  br label %14

14:                                               ; preds = %13, %6
  %15 = phi i32 [ %12, %6 ], [ 0, %13 ]
  ret i32 %15
}

; Function Attrs: nounwind uwtable
define i32 @sws_isSupportedOutput(i32 noundef %0) #0 {
  %2 = alloca i32, align 4
  store i32 %0, ptr %2, align 4, !tbaa !4
  %3 = load i32, ptr %2, align 4, !tbaa !4
  %4 = zext i32 %3 to i64
  %5 = icmp ult i64 %4, 256
  br i1 %5, label %6, label %14

6:                                                ; preds = %1
  %7 = load i32, ptr %2, align 4, !tbaa !4
  %8 = sext i32 %7 to i64
  %9 = getelementptr inbounds [256 x %struct.FormatEntry], ptr @format_entries, i64 0, i64 %8
  %10 = load i8, ptr %9, align 1
  %11 = lshr i8 %10, 1
  %12 = and i8 %11, 1
  %13 = zext i8 %12 to i32
  br label %15

14:                                               ; preds = %1
  br label %15

15:                                               ; preds = %14, %6
  %16 = phi i32 [ %13, %6 ], [ 0, %14 ]
  ret i32 %16
}

; Function Attrs: nounwind uwtable
define i32 @sws_test_format(i32 noundef %0, i32 noundef %1) #0 {
  %3 = alloca i32, align 4
  %4 = alloca i32, align 4
  store i32 %0, ptr %3, align 4, !tbaa !4
  store i32 %1, ptr %4, align 4, !tbaa !4
  %5 = load i32, ptr %4, align 4, !tbaa !4
  %6 = icmp ne i32 %5, 0
  br i1 %6, label %7, label %10

7:                                                ; preds = %2
  %8 = load i32, ptr %3, align 4, !tbaa !4
  %9 = call i32 @sws_isSupportedOutput(i32 noundef %8)
  br label %13

10:                                               ; preds = %2
  %11 = load i32, ptr %3, align 4, !tbaa !4
  %12 = call i32 @sws_isSupportedInput(i32 noundef %11)
  br label %13

13:                                               ; preds = %10, %7
  %14 = phi i32 [ %9, %7 ], [ %12, %10 ]
  ret i32 %14
}