; Function Attrs: mustprogress nofree norecurse nosync nounwind willreturn memory(none) uwtable
define range(i32 0, 2) i32 @sws_test_format(i32 noundef %0, i32 noundef %1) local_unnamed_addr #0 {
  %.not = icmp eq i32 %1, 0
  %3 = icmp ult i32 %0, 256
  br i1 %.not, label %11, label %4

4:                                                ; preds = %2
  br i1 %3, label %5, label %sws_isSupportedOutput.exit

5:                                                ; preds = %4
  %6 = zext nneg i32 %0 to i64
  %7 = getelementptr inbounds nuw [256 x %struct.FormatEntry], ptr @format_entries, i64 0, i64 %6
  %8 = load i8, ptr %7, align 1
  %9 = lshr i8 %8, 1
  %10 = and i8 %9, 1
  br label %sws_isSupportedOutput.exit

11:                                               ; preds = %2
  br i1 %3, label %12, label %sws_isSupportedOutput.exit

12:                                               ; preds = %11
  %13 = zext nneg i32 %0 to i64
  %14 = getelementptr inbounds nuw [256 x %struct.FormatEntry], ptr @format_entries, i64 0, i64 %13
  %15 = load i8, ptr %14, align 1
  %16 = and i8 %15, 1
  br label %sws_isSupportedOutput.exit

sws_isSupportedOutput.exit:                       ; preds = %12, %11, %5, %4
  %.shrunk = phi i8 [ %10, %5 ], [ 0, %4 ], [ %16, %12 ], [ 0, %11 ]
  %17 = zext nneg i8 %.shrunk to i32
  ret i32 %17
}